; Function Attrs: nofree norecurse nosync nounwind memory(readwrite, inaccessiblemem: none) uwtable
define internal void @echo_samples_s32p(ptr noundef captures(none) %0, ptr noundef readonly captures(none) %1, ptr noundef readonly captures(none) %2, ptr noundef readonly captures(none) %3, i32 noundef %4, i32 noundef %5) #4 {
  %7 = getelementptr inbounds nuw i8, ptr %0, i64 12
  %8 = load float, ptr %7, align 4, !tbaa !71
  %9 = fpext nsz float %8 to double
  %10 = getelementptr inbounds nuw i8, ptr %0, i64 8
  %11 = load float, ptr %10, align 8, !tbaa !70
  %12 = fpext nsz float %11 to double
  %13 = getelementptr inbounds nuw i8, ptr %0, i64 48
  %14 = load i32, ptr %13, align 8, !tbaa !34
  %15 = getelementptr inbounds nuw i8, ptr %0, i64 64
  %16 = load i32, ptr %15, align 8, !tbaa !68
  %17 = icmp sgt i32 %5, 0
  br i1 %17, label %.lr.ph, label %._crit_edge

.lr.ph:                                           ; preds = %6
  %18 = getelementptr inbounds nuw i8, ptr %0, i64 52
  %19 = icmp sgt i32 %4, 0
  %20 = getelementptr inbounds nuw i8, ptr %0, i64 72
  %21 = getelementptr inbounds nuw i8, ptr %0, i64 40
  br i1 %19, label %.lr.ph.split.us, label %.lr.ph.split.preheader

.lr.ph.split.preheader:                           ; preds = %.lr.ph
  %22 = load i32, ptr %18, align 4, !tbaa !73
  br label %._crit_edge

.lr.ph.split.us:                                  ; preds = %.lr.ph
  %23 = icmp sgt i32 %14, 0
  br i1 %23, label %.lr.ph.split.us.split.us, label %.lr.ph70.us.preheader

.lr.ph70.us.preheader:                            ; preds = %.lr.ph.split.us
  %wide.trip.count = zext nneg i32 %5 to i64
  br label %.lr.ph70.us

.lr.ph.split.us.split.us:                         ; preds = %.lr.ph.split.us
  %24 = load ptr, ptr %20, align 8, !tbaa !35
  %25 = load ptr, ptr %21, align 8, !tbaa !32
  %wide.trip.count99 = zext nneg i32 %5 to i64
  %wide.trip.count93 = zext nneg i32 %14 to i64
  br label %.lr.ph70.us.us

.lr.ph70.us.us:                                   ; preds = %._crit_edge71.split.us.us.us, %.lr.ph.split.us.split.us
  %indvars.iv96 = phi i64 [ %indvars.iv.next97, %._crit_edge71.split.us.us.us ], [ 0, %.lr.ph.split.us.split.us ]
  %26 = getelementptr inbounds nuw ptr, ptr %2, i64 %indvars.iv96
  %27 = load ptr, ptr %26, align 8, !tbaa !74
  %28 = getelementptr inbounds nuw ptr, ptr %3, i64 %indvars.iv96
  %29 = load ptr, ptr %28, align 8, !tbaa !74
  %30 = getelementptr inbounds nuw ptr, ptr %1, i64 %indvars.iv96
  %31 = load ptr, ptr %30, align 8, !tbaa !74
  %32 = load i32, ptr %18, align 4, !tbaa !73
  br label %.lr.ph.us.us.us

.lr.ph.us.us.us:                                  ; preds = %._crit_edge.us.us.us, %.lr.ph70.us.us
  %.068.us.us.us = phi i32 [ 0, %.lr.ph70.us.us ], [ %62, %._crit_edge.us.us.us ]
  %.05667.us.us.us = phi ptr [ %29, %.lr.ph70.us.us ], [ %64, %._crit_edge.us.us.us ]
  %.05766.us.us.us = phi ptr [ %27, %.lr.ph70.us.us ], [ %63, %._crit_edge.us.us.us ]
  %.165.us.us.us = phi i32 [ %32, %.lr.ph70.us.us ], [ %61, %._crit_edge.us.us.us ]
  %33 = load i32, ptr %.05766.us.us.us, align 4, !tbaa !33
  %34 = sitofp i32 %33 to double
  %35 = fmul nsz double %12, %34
  %36 = add nsw i32 %.165.us.us.us, %16
  br label %37

37:                                               ; preds = %37, %.lr.ph.us.us.us
  %indvars.iv90 = phi i64 [ %indvars.iv.next91, %37 ], [ 0, %.lr.ph.us.us.us ]
  %.05463.us.us.us = phi double [ %51, %37 ], [ %35, %.lr.ph.us.us.us ]
  %38 = getelementptr inbounds nuw i32, ptr %24, i64 %indvars.iv90
  %39 = load i32, ptr %38, align 4, !tbaa !33
  %40 = sub i32 %36, %39
  %.not62.us.us.us = icmp slt i32 %40, %16
  %41 = select i1 %.not62.us.us.us, i32 0, i32 %16
  %42 = sub nsw i32 %40, %41
  %43 = sext i32 %42 to i64
  %44 = getelementptr inbounds i32, ptr %31, i64 %43
  %45 = load i32, ptr %44, align 4, !tbaa !33
  %46 = sitofp i32 %45 to float
  %47 = getelementptr inbounds nuw float, ptr %25, i64 %indvars.iv90
  %48 = load float, ptr %47, align 4, !tbaa !36
  %49 = fmul nsz float %48, %46
  %50 = fpext nsz float %49 to double
  %51 = fadd nsz double %.05463.us.us.us, %50
  %indvars.iv.next91 = add nuw nsw i64 %indvars.iv90, 1
  %exitcond94.not = icmp eq i64 %indvars.iv.next91, %wide.trip.count93
  br i1 %exitcond94.not, label %._crit_edge.us.us.us, label %37, !llvm.loop !88

._crit_edge.us.us.us:                             ; preds = %37
  %52 = fmul nsz double %51, %9
  %53 = fcmp nsz ogt double %52, 0xC1E0000000000000
  %54 = select nsz i1 %53, double %52, double 0xC1E0000000000000
  %55 = fcmp nsz ogt double %54, 0x41DFFFFFFFC00000
  %..i.us.us.us = select nsz i1 %55, double 0x41DFFFFFFFC00000, double %54
  %56 = fptosi double %..i.us.us.us to i32
  store i32 %56, ptr %.05667.us.us.us, align 4, !tbaa !33
  %57 = sext i32 %.165.us.us.us to i64
  %58 = getelementptr inbounds i32, ptr %31, i64 %57
  store i32 %33, ptr %58, align 4, !tbaa !33
  %59 = add nsw i32 %.165.us.us.us, 1
  %.not.us.us.us = icmp slt i32 %59, %16
  %60 = select i1 %.not.us.us.us, i32 0, i32 %16
  %61 = sub nsw i32 %59, %60
  %62 = add nuw nsw i32 %.068.us.us.us, 1
  %63 = getelementptr inbounds nuw i8, ptr %.05766.us.us.us, i64 4
  %64 = getelementptr inbounds nuw i8, ptr %.05667.us.us.us, i64 4
  %exitcond95.not = icmp eq i32 %62, %4
  br i1 %exitcond95.not, label %._crit_edge71.split.us.us.us, label %.lr.ph.us.us.us, !llvm.loop !89

._crit_edge71.split.us.us.us:                     ; preds = %._crit_edge.us.us.us
  %indvars.iv.next97 = add nuw nsw i64 %indvars.iv96, 1
  %exitcond100.not = icmp eq i64 %indvars.iv.next97, %wide.trip.count99
  br i1 %exitcond100.not, label %._crit_edge, label %.lr.ph70.us.us, !llvm.loop !90

.lr.ph70.us:                                      ; preds = %.lr.ph70.us.preheader, %._crit_edge71.split.us80
  %indvars.iv = phi i64 [ 0, %.lr.ph70.us.preheader ], [ %indvars.iv.next, %._crit_edge71.split.us80 ]
  %65 = getelementptr inbounds nuw ptr, ptr %2, i64 %indvars.iv
  %66 = load ptr, ptr %65, align 8, !tbaa !74
  %67 = getelementptr inbounds nuw ptr, ptr %3, i64 %indvars.iv
  %68 = load ptr, ptr %67, align 8, !tbaa !74
  %69 = getelementptr inbounds nuw ptr, ptr %1, i64 %indvars.iv
  %70 = load ptr, ptr %69, align 8, !tbaa !74
  %71 = load i32, ptr %18, align 4, !tbaa !73
  br label %72

72:                                               ; preds = %.lr.ph70.us, %72
  %.068.us74 = phi i32 [ 0, %.lr.ph70.us ], [ %86, %72 ]
  %.05667.us75 = phi ptr [ %68, %.lr.ph70.us ], [ %88, %72 ]
  %.05766.us76 = phi ptr [ %66, %.lr.ph70.us ], [ %87, %72 ]
  %.165.us77 = phi i32 [ %71, %.lr.ph70.us ], [ %85, %72 ]
  %73 = load i32, ptr %.05766.us76, align 4, !tbaa !33
  %74 = sitofp i32 %73 to double
  %75 = fmul nsz double %12, %74
  %76 = fmul nsz double %75, %9
  %77 = fcmp nsz ogt double %76, 0xC1E0000000000000
  %78 = select nsz i1 %77, double %76, double 0xC1E0000000000000
  %79 = fcmp nsz ogt double %78, 0x41DFFFFFFFC00000
  %..i.us78 = select nsz i1 %79, double 0x41DFFFFFFFC00000, double %78
  %80 = fptosi double %..i.us78 to i32
  store i32 %80, ptr %.05667.us75, align 4, !tbaa !33
  %81 = sext i32 %.165.us77 to i64
  %82 = getelementptr inbounds i32, ptr %70, i64 %81
  store i32 %73, ptr %82, align 4, !tbaa !33
  %83 = add nsw i32 %.165.us77, 1
  %.not.us79 = icmp slt i32 %83, %16
  %84 = select i1 %.not.us79, i32 0, i32 %16
  %85 = sub nsw i32 %83, %84
  %86 = add nuw nsw i32 %.068.us74, 1
  %87 = getelementptr inbounds nuw i8, ptr %.05766.us76, i64 4
  %88 = getelementptr inbounds nuw i8, ptr %.05667.us75, i64 4
  %exitcond.not = icmp eq i32 %86, %4
  br i1 %exitcond.not, label %._crit_edge71.split.us80, label %72, !llvm.loop !89

._crit_edge71.split.us80:                         ; preds = %72
  %indvars.iv.next = add nuw nsw i64 %indvars.iv, 1
  %exitcond89.not = icmp eq i64 %indvars.iv.next, %wide.trip.count
  br i1 %exitcond89.not, label %._crit_edge, label %.lr.ph70.us, !llvm.loop !90

._crit_edge:                                      ; preds = %._crit_edge71.split.us80, %._crit_edge71.split.us.us.us, %.lr.ph.split.preheader, %6
  %.058.lcssa = phi i32 [ undef, %6 ], [ %22, %.lr.ph.split.preheader ], [ %61, %._crit_edge71.split.us.us.us ], [ %85, %._crit_edge71.split.us80 ]
  %89 = getelementptr inbounds nuw i8, ptr %0, i64 52
  store i32 %.058.lcssa, ptr %89, align 4, !tbaa !73
  ret void
}